target datalayout = "e-m:e-p270:32:32-p271:32:32-p272:64:64-i64:64-i128:128-f80:128-n8:16:32:64-S128"
target triple = "x86_64-pc-linux-gnu"

%"class.PhaseChaitin::Pressure" = type { i32, i32, i32, i32, i32 }

; Function Attrs: mustprogress nounwind uwtable
define linkonce_odr hidden void @_ZN12PhaseChaitin8Pressure38set_high_pressure_index_to_block_startEv(ptr noundef nonnull align 4 dereferenceable(20) %0) #1 comdat align 2 {
  %2 = alloca ptr, align 8
  store ptr %0, ptr %2, align 8
  %3 = load ptr, ptr %2, align 8
  %4 = getelementptr inbounds %"class.PhaseChaitin::Pressure", ptr %3, i32 0, i32 1
  store i32 0, ptr %4, align 4
  ret void
}

; Function Attrs: mustprogress nounwind uwtable
define linkonce_odr hidden noundef i32 @_ZNK12PhaseChaitin8Pressure19high_pressure_limitEv(ptr noundef nonnull align 4 dereferenceable(20) %0) #1 comdat align 2 {
  %2 = alloca ptr, align 8
  store ptr %0, ptr %2, align 8
  %3 = load ptr, ptr %2, align 8
  %4 = getelementptr inbounds %"class.PhaseChaitin::Pressure", ptr %3, i32 0, i32 3
  %5 = load i32, ptr %4, align 4
  ret i32 %5
}

; Function Attrs: mustprogress nounwind uwtable
define linkonce_odr hidden noundef i32 @_ZNK12PhaseChaitin8Pressure16current_pressureEv(ptr noundef nonnull align 4 dereferenceable(20) %0) #1 comdat align 2 {
  %2 = alloca ptr, align 8
  store ptr %0, ptr %2, align 8
  %3 = load ptr, ptr %2, align 8
  %4 = getelementptr inbounds %"class.PhaseChaitin::Pressure", ptr %3, i32 0, i32 0
  %5 = load i32, ptr %4, align 4
  ret i32 %5
}

; Function Attrs: mustprogress nounwind uwtable
define hidden void @_ZN12PhaseChaitin29check_for_high_pressure_blockERNS_8PressureE(ptr noundef nonnull align 8 dereferenceable(364) %0, ptr noundef nonnull align 4 dereferenceable(20) %1) #1 align 2 {
  %3 = alloca ptr, align 8
  %4 = alloca ptr, align 8
  store ptr %0, ptr %3, align 8
  store ptr %1, ptr %4, align 8
  %5 = load ptr, ptr %4, align 8
  %6 = call noundef i32 @_ZNK12PhaseChaitin8Pressure16current_pressureEv(ptr noundef nonnull align 4 dereferenceable(20) %5)
  %7 = load ptr, ptr %4, align 8
  %8 = call noundef i32 @_ZNK12PhaseChaitin8Pressure19high_pressure_limitEv(ptr noundef nonnull align 4 dereferenceable(20) %7)
  %9 = icmp ugt i32 %6, %8
  br i1 %9, label %10, label %12

10:                                               ; preds = %2
  %11 = load ptr, ptr %4, align 8
  call void @_ZN12PhaseChaitin8Pressure38set_high_pressure_index_to_block_startEv(ptr noundef nonnull align 4 dereferenceable(20) %11)
  br label %12

12:                                               ; preds = %10, %2
  ret void
}