; Function Attrs: mustprogress nofree norecurse nosync nounwind willreturn memory(argmem: readwrite) uwtable
define hidden void @_ZN12PhaseChaitin29check_for_high_pressure_blockERNS_8PressureE(ptr nocapture noundef nonnull readnone align 8 dereferenceable(364) %0, ptr nocapture noundef nonnull align 4 dereferenceable(20) %1) local_unnamed_addr #8 align 2 {
  %3 = load i32, ptr %1, align 4
  %4 = getelementptr inbounds i8, ptr %1, i64 12
  %5 = load i32, ptr %4, align 4
  %6 = icmp ugt i32 %3, %5
  br i1 %6, label %7, label %9

7:                                                ; preds = %2
  %8 = getelementptr inbounds i8, ptr %1, i64 4
  store i32 0, ptr %8, align 4
  br label %9

9:                                                ; preds = %7, %2
  ret void
}